
runtime.o:     file format elf64-x86-64


Disassembly of section .text:

0000000000000000 <allocate>:
   0:	f3 0f 1e fa          	endbr64
   4:	55                   	push   %rbp
   5:	48 89 e5             	mov    %rsp,%rbp
   8:	48 83 ec 10          	sub    $0x10,%rsp
   c:	48 89 7d f8          	mov    %rdi,-0x8(%rbp)
  10:	48 8b 45 f8          	mov    -0x8(%rbp),%rax
  14:	48 89 c6             	mov    %rax,%rsi
  17:	bf 01 00 00 00       	mov    $0x1,%edi
  1c:	e8 00 00 00 00       	call   21 <allocate+0x21>
  21:	c9                   	leave
  22:	c3                   	ret

0000000000000023 <deallocate>:
  23:	f3 0f 1e fa          	endbr64
  27:	55                   	push   %rbp
  28:	48 89 e5             	mov    %rsp,%rbp
  2b:	48 83 ec 10          	sub    $0x10,%rsp
  2f:	48 89 7d f8          	mov    %rdi,-0x8(%rbp)
  33:	48 8b 45 f8          	mov    -0x8(%rbp),%rax
  37:	48 89 c7             	mov    %rax,%rdi
  3a:	e8 00 00 00 00       	call   3f <deallocate+0x1c>
  3f:	90                   	nop
  40:	c9                   	leave
  41:	c3                   	ret

0000000000000042 <reallocate>:
  42:	f3 0f 1e fa          	endbr64
  46:	55                   	push   %rbp
  47:	48 89 e5             	mov    %rsp,%rbp
  4a:	48 83 ec 30          	sub    $0x30,%rsp
  4e:	48 89 7d e8          	mov    %rdi,-0x18(%rbp)
  52:	48 89 75 e0          	mov    %rsi,-0x20(%rbp)
  56:	48 89 55 d8          	mov    %rdx,-0x28(%rbp)
  5a:	48 8b 55 d8          	mov    -0x28(%rbp),%rdx
  5e:	48 8b 45 e8          	mov    -0x18(%rbp),%rax
  62:	48 89 d6             	mov    %rdx,%rsi
  65:	48 89 c7             	mov    %rax,%rdi
  68:	e8 00 00 00 00       	call   6d <reallocate+0x2b>
  6d:	48 89 45 f8          	mov    %rax,-0x8(%rbp)
  71:	48 83 7d f8 00       	cmpq   $0x0,-0x8(%rbp)
  76:	74 30                	je     a8 <reallocate+0x66>
  78:	48 8b 45 d8          	mov    -0x28(%rbp),%rax
  7c:	48 3b 45 e0          	cmp    -0x20(%rbp),%rax
  80:	7e 26                	jle    a8 <reallocate+0x66>
  82:	48 8b 45 d8          	mov    -0x28(%rbp),%rax
  86:	48 2b 45 e0          	sub    -0x20(%rbp),%rax
  8a:	48 89 c1             	mov    %rax,%rcx
  8d:	48 8b 55 e0          	mov    -0x20(%rbp),%rdx
  91:	48 8b 45 f8          	mov    -0x8(%rbp),%rax
  95:	48 01 d0             	add    %rdx,%rax
  98:	48 89 ca             	mov    %rcx,%rdx
  9b:	be 00 00 00 00       	mov    $0x0,%esi
  a0:	48 89 c7             	mov    %rax,%rdi
  a3:	e8 00 00 00 00       	call   a8 <reallocate+0x66>
  a8:	48 8b 45 f8          	mov    -0x8(%rbp),%rax
  ac:	c9                   	leave
  ad:	c3                   	ret

00000000000000ae <memory_get_byte>:
  ae:	f3 0f 1e fa          	endbr64
  b2:	55                   	push   %rbp
  b3:	48 89 e5             	mov    %rsp,%rbp
  b6:	48 89 7d f8          	mov    %rdi,-0x8(%rbp)
  ba:	48 89 75 f0          	mov    %rsi,-0x10(%rbp)
  be:	48 8b 55 f0          	mov    -0x10(%rbp),%rdx
  c2:	48 8b 45 f8          	mov    -0x8(%rbp),%rax
  c6:	48 01 d0             	add    %rdx,%rax
  c9:	0f b6 00             	movzbl (%rax),%eax
  cc:	0f b6 c0             	movzbl %al,%eax
  cf:	5d                   	pop    %rbp
  d0:	c3                   	ret

00000000000000d1 <memory_set_byte>:
  d1:	f3 0f 1e fa          	endbr64
  d5:	55                   	push   %rbp
  d6:	48 89 e5             	mov    %rsp,%rbp
  d9:	48 89 7d f8          	mov    %rdi,-0x8(%rbp)
  dd:	48 89 75 f0          	mov    %rsi,-0x10(%rbp)
  e1:	48 89 55 e8          	mov    %rdx,-0x18(%rbp)
  e5:	48 8b 55 f0          	mov    -0x10(%rbp),%rdx
  e9:	48 8b 45 f8          	mov    -0x8(%rbp),%rax
  ed:	48 01 d0             	add    %rdx,%rax
  f0:	48 8b 55 e8          	mov    -0x18(%rbp),%rdx
  f4:	88 10                	mov    %dl,(%rax)
  f6:	90                   	nop
  f7:	5d                   	pop    %rbp
  f8:	c3                   	ret

00000000000000f9 <memory_get_integer>:
  f9:	f3 0f 1e fa          	endbr64
  fd:	55                   	push   %rbp
  fe:	48 89 e5             	mov    %rsp,%rbp
 101:	48 89 7d f8          	mov    %rdi,-0x8(%rbp)
 105:	48 89 75 f0          	mov    %rsi,-0x10(%rbp)
 109:	48 8b 55 f0          	mov    -0x10(%rbp),%rdx
 10d:	48 8b 45 f8          	mov    -0x8(%rbp),%rax
 111:	48 01 d0             	add    %rdx,%rax
 114:	48 8b 00             	mov    (%rax),%rax
 117:	5d                   	pop    %rbp
 118:	c3                   	ret

0000000000000119 <memory_set_integer>:
 119:	f3 0f 1e fa          	endbr64
 11d:	55                   	push   %rbp
 11e:	48 89 e5             	mov    %rsp,%rbp
 121:	48 89 7d f8          	mov    %rdi,-0x8(%rbp)
 125:	48 89 75 f0          	mov    %rsi,-0x10(%rbp)
 129:	48 89 55 e8          	mov    %rdx,-0x18(%rbp)
 12d:	48 8b 55 f0          	mov    -0x10(%rbp),%rdx
 131:	48 8b 45 f8          	mov    -0x8(%rbp),%rax
 135:	48 01 c2             	add    %rax,%rdx
 138:	48 8b 45 e8          	mov    -0x18(%rbp),%rax
 13c:	48 89 02             	mov    %rax,(%rdx)
 13f:	90                   	nop
 140:	5d                   	pop    %rbp
 141:	c3                   	ret

0000000000000142 <memory_get_pointer>:
 142:	f3 0f 1e fa          	endbr64
 146:	55                   	push   %rbp
 147:	48 89 e5             	mov    %rsp,%rbp
 14a:	48 89 7d f8          	mov    %rdi,-0x8(%rbp)
 14e:	48 89 75 f0          	mov    %rsi,-0x10(%rbp)
 152:	48 8b 55 f0          	mov    -0x10(%rbp),%rdx
 156:	48 8b 45 f8          	mov    -0x8(%rbp),%rax
 15a:	48 01 d0             	add    %rdx,%rax
 15d:	48 8b 00             	mov    (%rax),%rax
 160:	5d                   	pop    %rbp
 161:	c3                   	ret

0000000000000162 <memory_set_pointer>:
 162:	f3 0f 1e fa          	endbr64
 166:	55                   	push   %rbp
 167:	48 89 e5             	mov    %rsp,%rbp
 16a:	48 89 7d f8          	mov    %rdi,-0x8(%rbp)
 16e:	48 89 75 f0          	mov    %rsi,-0x10(%rbp)
 172:	48 89 55 e8          	mov    %rdx,-0x18(%rbp)
 176:	48 8b 55 f0          	mov    -0x10(%rbp),%rdx
 17a:	48 8b 45 f8          	mov    -0x8(%rbp),%rax
 17e:	48 01 c2             	add    %rax,%rdx
 181:	48 8b 45 e8          	mov    -0x18(%rbp),%rax
 185:	48 89 02             	mov    %rax,(%rdx)
 188:	90                   	nop
 189:	5d                   	pop    %rbp
 18a:	c3                   	ret

000000000000018b <memory_copy>:
 18b:	f3 0f 1e fa          	endbr64
 18f:	55                   	push   %rbp
 190:	48 89 e5             	mov    %rsp,%rbp
 193:	48 83 ec 20          	sub    $0x20,%rsp
 197:	48 89 7d f8          	mov    %rdi,-0x8(%rbp)
 19b:	48 89 75 f0          	mov    %rsi,-0x10(%rbp)
 19f:	48 89 55 e8          	mov    %rdx,-0x18(%rbp)
 1a3:	48 8b 55 e8          	mov    -0x18(%rbp),%rdx
 1a7:	48 8b 4d f0          	mov    -0x10(%rbp),%rcx
 1ab:	48 8b 45 f8          	mov    -0x8(%rbp),%rax
 1af:	48 89 ce             	mov    %rcx,%rsi
 1b2:	48 89 c7             	mov    %rax,%rdi
 1b5:	e8 00 00 00 00       	call   1ba <memory_copy+0x2f>
 1ba:	90                   	nop
 1bb:	c9                   	leave
 1bc:	c3                   	ret

00000000000001bd <memory_get_pointer_at_index>:
 1bd:	f3 0f 1e fa          	endbr64
 1c1:	55                   	push   %rbp
 1c2:	48 89 e5             	mov    %rsp,%rbp
 1c5:	48 89 7d f8          	mov    %rdi,-0x8(%rbp)
 1c9:	48 89 75 f0          	mov    %rsi,-0x10(%rbp)
 1cd:	48 8b 45 f0          	mov    -0x10(%rbp),%rax
 1d1:	48 8d 14 c5 00 00 00 	lea    0x0(,%rax,8),%rdx
 1d8:	00 
 1d9:	48 8b 45 f8          	mov    -0x8(%rbp),%rax
 1dd:	48 01 d0             	add    %rdx,%rax
 1e0:	48 8b 00             	mov    (%rax),%rax
 1e3:	5d                   	pop    %rbp
 1e4:	c3                   	ret

00000000000001e5 <memory_set_pointer_at_index>:
 1e5:	f3 0f 1e fa          	endbr64
 1e9:	55                   	push   %rbp
 1ea:	48 89 e5             	mov    %rsp,%rbp
 1ed:	48 89 7d f8          	mov    %rdi,-0x8(%rbp)
 1f1:	48 89 75 f0          	mov    %rsi,-0x10(%rbp)
 1f5:	48 89 55 e8          	mov    %rdx,-0x18(%rbp)
 1f9:	48 8b 45 f0          	mov    -0x10(%rbp),%rax
 1fd:	48 8d 14 c5 00 00 00 	lea    0x0(,%rax,8),%rdx
 204:	00 
 205:	48 8b 45 f8          	mov    -0x8(%rbp),%rax
 209:	48 01 c2             	add    %rax,%rdx
 20c:	48 8b 45 e8          	mov    -0x18(%rbp),%rax
 210:	48 89 02             	mov    %rax,(%rdx)
 213:	90                   	nop
 214:	5d                   	pop    %rbp
 215:	c3                   	ret

0000000000000216 <memory_pointer_to_string>:
 216:	f3 0f 1e fa          	endbr64
 21a:	55                   	push   %rbp
 21b:	48 89 e5             	mov    %rsp,%rbp
 21e:	48 89 7d f8          	mov    %rdi,-0x8(%rbp)
 222:	48 8b 45 f8          	mov    -0x8(%rbp),%rax
 226:	5d                   	pop    %rbp
 227:	c3                   	ret

0000000000000228 <memory_get_substring>:
 228:	f3 0f 1e fa          	endbr64
 22c:	55                   	push   %rbp
 22d:	48 89 e5             	mov    %rsp,%rbp
 230:	48 83 ec 30          	sub    $0x30,%rsp
 234:	48 89 7d e8          	mov    %rdi,-0x18(%rbp)
 238:	48 89 75 e0          	mov    %rsi,-0x20(%rbp)
 23c:	48 89 55 d8          	mov    %rdx,-0x28(%rbp)
 240:	48 8b 45 d8          	mov    -0x28(%rbp),%rax
 244:	48 83 c0 01          	add    $0x1,%rax
 248:	48 89 c7             	mov    %rax,%rdi
 24b:	e8 00 00 00 00       	call   250 <memory_get_substring+0x28>
 250:	48 89 45 f8          	mov    %rax,-0x8(%rbp)
 254:	48 83 7d f8 00       	cmpq   $0x0,-0x8(%rbp)
 259:	74 2c                	je     287 <memory_get_substring+0x5f>
 25b:	48 8b 55 d8          	mov    -0x28(%rbp),%rdx
 25f:	48 8b 4d e0          	mov    -0x20(%rbp),%rcx
 263:	48 8b 45 e8          	mov    -0x18(%rbp),%rax
 267:	48 01 c1             	add    %rax,%rcx
 26a:	48 8b 45 f8          	mov    -0x8(%rbp),%rax
 26e:	48 89 ce             	mov    %rcx,%rsi
 271:	48 89 c7             	mov    %rax,%rdi
 274:	e8 00 00 00 00       	call   279 <memory_get_substring+0x51>
 279:	48 8b 55 d8          	mov    -0x28(%rbp),%rdx
 27d:	48 8b 45 f8          	mov    -0x8(%rbp),%rax
 281:	48 01 d0             	add    %rdx,%rax
 284:	c6 00 00             	movb   $0x0,(%rax)
 287:	48 8b 45 f8          	mov    -0x8(%rbp),%rax
 28b:	c9                   	leave
 28c:	c3                   	ret

000000000000028d <file_open_fd>:
 28d:	f3 0f 1e fa          	endbr64
 291:	55                   	push   %rbp
 292:	48 89 e5             	mov    %rsp,%rbp
 295:	48 83 ec 10          	sub    $0x10,%rsp
 299:	48 89 7d f8          	mov    %rdi,-0x8(%rbp)
 29d:	48 8b 45 f8          	mov    -0x8(%rbp),%rax
 2a1:	ba a4 01 00 00       	mov    $0x1a4,%edx
 2a6:	be 41 02 00 00       	mov    $0x241,%esi
 2ab:	48 89 c7             	mov    %rax,%rdi
 2ae:	b8 00 00 00 00       	mov    $0x0,%eax
 2b3:	e8 00 00 00 00       	call   2b8 <file_open_fd+0x2b>
 2b8:	48 98                	cltq
 2ba:	c9                   	leave
 2bb:	c3                   	ret

00000000000002bc <file_open_fd_with_flags>:
 2bc:	f3 0f 1e fa          	endbr64
 2c0:	55                   	push   %rbp
 2c1:	48 89 e5             	mov    %rsp,%rbp
 2c4:	48 83 ec 20          	sub    $0x20,%rsp
 2c8:	48 89 7d e8          	mov    %rdi,-0x18(%rbp)
 2cc:	48 89 75 e0          	mov    %rsi,-0x20(%rbp)
 2d0:	c7 45 fc 00 00 00 00 	movl   $0x0,-0x4(%rbp)
 2d7:	48 83 7d e0 01       	cmpq   $0x1,-0x20(%rbp)
 2dc:	75 09                	jne    2e7 <file_open_fd_with_flags+0x2b>
 2de:	c7 45 fc 41 02 00 00 	movl   $0x241,-0x4(%rbp)
 2e5:	eb 0e                	jmp    2f5 <file_open_fd_with_flags+0x39>
 2e7:	48 83 7d e0 02       	cmpq   $0x2,-0x20(%rbp)
 2ec:	75 07                	jne    2f5 <file_open_fd_with_flags+0x39>
 2ee:	c7 45 fc 42 00 00 00 	movl   $0x42,-0x4(%rbp)
 2f5:	8b 4d fc             	mov    -0x4(%rbp),%ecx
 2f8:	48 8b 45 e8          	mov    -0x18(%rbp),%rax
 2fc:	ba a4 01 00 00       	mov    $0x1a4,%edx
 301:	89 ce                	mov    %ecx,%esi
 303:	48 89 c7             	mov    %rax,%rdi
 306:	b8 00 00 00 00       	mov    $0x0,%eax
 30b:	e8 00 00 00 00       	call   310 <file_open_fd_with_flags+0x54>
 310:	48 98                	cltq
 312:	c9                   	leave
 313:	c3                   	ret

0000000000000314 <file_write_fd>:
 314:	f3 0f 1e fa          	endbr64
 318:	55                   	push   %rbp
 319:	48 89 e5             	mov    %rsp,%rbp
 31c:	48 83 ec 10          	sub    $0x10,%rsp
 320:	48 89 7d f8          	mov    %rdi,-0x8(%rbp)
 324:	48 89 75 f0          	mov    %rsi,-0x10(%rbp)
 328:	48 8b 45 f0          	mov    -0x10(%rbp),%rax
 32c:	48 89 c7             	mov    %rax,%rdi
 32f:	e8 00 00 00 00       	call   334 <file_write_fd+0x20>
 334:	48 89 c2             	mov    %rax,%rdx
 337:	48 8b 45 f8          	mov    -0x8(%rbp),%rax
 33b:	89 c1                	mov    %eax,%ecx
 33d:	48 8b 45 f0          	mov    -0x10(%rbp),%rax
 341:	48 89 c6             	mov    %rax,%rsi
 344:	89 cf                	mov    %ecx,%edi
 346:	e8 00 00 00 00       	call   34b <file_write_fd+0x37>
 34b:	90                   	nop
 34c:	c9                   	leave
 34d:	c3                   	ret

000000000000034e <file_write_fd_with_size>:
 34e:	f3 0f 1e fa          	endbr64
 352:	55                   	push   %rbp
 353:	48 89 e5             	mov    %rsp,%rbp
 356:	48 83 ec 20          	sub    $0x20,%rsp
 35a:	48 89 7d f8          	mov    %rdi,-0x8(%rbp)
 35e:	48 89 75 f0          	mov    %rsi,-0x10(%rbp)
 362:	48 89 55 e8          	mov    %rdx,-0x18(%rbp)
 366:	48 83 7d e8 00       	cmpq   $0x0,-0x18(%rbp)
 36b:	75 17                	jne    384 <file_write_fd_with_size+0x36>
 36d:	48 83 7d f0 00       	cmpq   $0x0,-0x10(%rbp)
 372:	74 10                	je     384 <file_write_fd_with_size+0x36>
 374:	48 8b 45 f0          	mov    -0x10(%rbp),%rax
 378:	48 89 c7             	mov    %rax,%rdi
 37b:	e8 00 00 00 00       	call   380 <file_write_fd_with_size+0x32>
 380:	48 89 45 e8          	mov    %rax,-0x18(%rbp)
 384:	48 8b 55 e8          	mov    -0x18(%rbp),%rdx
 388:	48 8b 45 f8          	mov    -0x8(%rbp),%rax
 38c:	89 c1                	mov    %eax,%ecx
 38e:	48 8b 45 f0          	mov    -0x10(%rbp),%rax
 392:	48 89 c6             	mov    %rax,%rsi
 395:	89 cf                	mov    %ecx,%edi
 397:	e8 00 00 00 00       	call   39c <file_write_fd_with_size+0x4e>
 39c:	c9                   	leave
 39d:	c3                   	ret

000000000000039e <file_close_fd>:
 39e:	f3 0f 1e fa          	endbr64
 3a2:	55                   	push   %rbp
 3a3:	48 89 e5             	mov    %rsp,%rbp
 3a6:	48 83 ec 10          	sub    $0x10,%rsp
 3aa:	48 89 7d f8          	mov    %rdi,-0x8(%rbp)
 3ae:	48 8b 45 f8          	mov    -0x8(%rbp),%rax
 3b2:	89 c7                	mov    %eax,%edi
 3b4:	e8 00 00 00 00       	call   3b9 <file_close_fd+0x1b>
 3b9:	90                   	nop
 3ba:	c9                   	leave
 3bb:	c3                   	ret

00000000000003bc <system_call>:
 3bc:	f3 0f 1e fa          	endbr64
 3c0:	55                   	push   %rbp
 3c1:	48 89 e5             	mov    %rsp,%rbp
 3c4:	48 83 ec 30          	sub    $0x30,%rsp
 3c8:	48 89 7d f8          	mov    %rdi,-0x8(%rbp)
 3cc:	48 89 75 f0          	mov    %rsi,-0x10(%rbp)
 3d0:	48 89 55 e8          	mov    %rdx,-0x18(%rbp)
 3d4:	48 89 4d e0          	mov    %rcx,-0x20(%rbp)
 3d8:	4c 89 45 d8          	mov    %r8,-0x28(%rbp)
 3dc:	4c 89 4d d0          	mov    %r9,-0x30(%rbp)
 3e0:	4c 8b 45 d0          	mov    -0x30(%rbp),%r8
 3e4:	48 8b 7d d8          	mov    -0x28(%rbp),%rdi
 3e8:	48 8b 4d e0          	mov    -0x20(%rbp),%rcx
 3ec:	48 8b 55 e8          	mov    -0x18(%rbp),%rdx
 3f0:	48 8b 75 f0          	mov    -0x10(%rbp),%rsi
 3f4:	48 8b 45 f8          	mov    -0x8(%rbp),%rax
 3f8:	48 83 ec 08          	sub    $0x8,%rsp
 3fc:	ff 75 10             	push   0x10(%rbp)
 3ff:	4d 89 c1             	mov    %r8,%r9
 402:	49 89 f8             	mov    %rdi,%r8
 405:	48 89 c7             	mov    %rax,%rdi
 408:	b8 00 00 00 00       	mov    $0x0,%eax
 40d:	e8 00 00 00 00       	call   412 <system_call+0x56>
 412:	48 83 c4 10          	add    $0x10,%rsp
 416:	c9                   	leave
 417:	c3                   	ret

0000000000000418 <exit_with_code>:
 418:	f3 0f 1e fa          	endbr64
 41c:	55                   	push   %rbp
 41d:	48 89 e5             	mov    %rsp,%rbp
 420:	48 83 ec 10          	sub    $0x10,%rsp
 424:	48 89 7d f8          	mov    %rdi,-0x8(%rbp)
 428:	48 8b 45 f8          	mov    -0x8(%rbp),%rax
 42c:	89 c7                	mov    %eax,%edi
 42e:	e8 00 00 00 00       	call   433 <string_concat>

0000000000000433 <string_concat>:
 433:	f3 0f 1e fa          	endbr64
 437:	55                   	push   %rbp
 438:	48 89 e5             	mov    %rsp,%rbp
 43b:	48 83 ec 30          	sub    $0x30,%rsp
 43f:	48 89 7d d8          	mov    %rdi,-0x28(%rbp)
 443:	48 89 75 d0          	mov    %rsi,-0x30(%rbp)
 447:	48 83 7d d8 00       	cmpq   $0x0,-0x28(%rbp)
 44c:	75 11                	jne    45f <string_concat+0x2c>
 44e:	48 8b 45 d0          	mov    -0x30(%rbp),%rax
 452:	48 89 c7             	mov    %rax,%rdi
 455:	e8 00 00 00 00       	call   45a <string_concat+0x27>
 45a:	e9 81 00 00 00       	jmp    4e0 <string_concat+0xad>
 45f:	48 83 7d d0 00       	cmpq   $0x0,-0x30(%rbp)
 464:	75 0e                	jne    474 <string_concat+0x41>
 466:	48 8b 45 d8          	mov    -0x28(%rbp),%rax
 46a:	48 89 c7             	mov    %rax,%rdi
 46d:	e8 00 00 00 00       	call   472 <string_concat+0x3f>
 472:	eb 6c                	jmp    4e0 <string_concat+0xad>
 474:	48 8b 45 d8          	mov    -0x28(%rbp),%rax
 478:	48 89 c7             	mov    %rax,%rdi
 47b:	e8 00 00 00 00       	call   480 <string_concat+0x4d>
 480:	48 89 45 e8          	mov    %rax,-0x18(%rbp)
 484:	48 8b 45 d0          	mov    -0x30(%rbp),%rax
 488:	48 89 c7             	mov    %rax,%rdi
 48b:	e8 00 00 00 00       	call   490 <string_concat+0x5d>
 490:	48 89 45 f0          	mov    %rax,-0x10(%rbp)
 494:	48 8b 55 e8          	mov    -0x18(%rbp),%rdx
 498:	48 8b 45 f0          	mov    -0x10(%rbp),%rax
 49c:	48 01 d0             	add    %rdx,%rax
 49f:	48 83 c0 01          	add    $0x1,%rax
 4a3:	48 89 c7             	mov    %rax,%rdi
 4a6:	e8 00 00 00 00       	call   4ab <string_concat+0x78>
 4ab:	48 89 45 f8          	mov    %rax,-0x8(%rbp)
 4af:	48 83 7d f8 00       	cmpq   $0x0,-0x8(%rbp)
 4b4:	74 26                	je     4dc <string_concat+0xa9>
 4b6:	48 8b 55 d8          	mov    -0x28(%rbp),%rdx
 4ba:	48 8b 45 f8          	mov    -0x8(%rbp),%rax
 4be:	48 89 d6             	mov    %rdx,%rsi
 4c1:	48 89 c7             	mov    %rax,%rdi
 4c4:	e8 00 00 00 00       	call   4c9 <string_concat+0x96>
 4c9:	48 8b 55 d0          	mov    -0x30(%rbp),%rdx
 4cd:	48 8b 45 f8          	mov    -0x8(%rbp),%rax
 4d1:	48 89 d6             	mov    %rdx,%rsi
 4d4:	48 89 c7             	mov    %rax,%rdi
 4d7:	e8 00 00 00 00       	call   4dc <string_concat+0xa9>
 4dc:	48 8b 45 f8          	mov    -0x8(%rbp),%rax
 4e0:	c9                   	leave
 4e1:	c3                   	ret

00000000000004e2 <string_compare>:
 4e2:	f3 0f 1e fa          	endbr64
 4e6:	55                   	push   %rbp
 4e7:	48 89 e5             	mov    %rsp,%rbp
 4ea:	48 83 ec 10          	sub    $0x10,%rsp
 4ee:	48 89 7d f8          	mov    %rdi,-0x8(%rbp)
 4f2:	48 89 75 f0          	mov    %rsi,-0x10(%rbp)
 4f6:	48 83 7d f8 00       	cmpq   $0x0,-0x8(%rbp)
 4fb:	75 0e                	jne    50b <string_compare+0x29>
 4fd:	48 83 7d f0 00       	cmpq   $0x0,-0x10(%rbp)
 502:	75 07                	jne    50b <string_compare+0x29>
 504:	b8 00 00 00 00       	mov    $0x0,%eax
 509:	eb 33                	jmp    53e <string_compare+0x5c>
 50b:	48 83 7d f8 00       	cmpq   $0x0,-0x8(%rbp)
 510:	75 09                	jne    51b <string_compare+0x39>
 512:	48 c7 c0 ff ff ff ff 	mov    $0xffffffffffffffff,%rax
 519:	eb 23                	jmp    53e <string_compare+0x5c>
 51b:	48 83 7d f0 00       	cmpq   $0x0,-0x10(%rbp)
 520:	75 07                	jne    529 <string_compare+0x47>
 522:	b8 01 00 00 00       	mov    $0x1,%eax
 527:	eb 15                	jmp    53e <string_compare+0x5c>
 529:	48 8b 55 f0          	mov    -0x10(%rbp),%rdx
 52d:	48 8b 45 f8          	mov    -0x8(%rbp),%rax
 531:	48 89 d6             	mov    %rdx,%rsi
 534:	48 89 c7             	mov    %rax,%rdi
 537:	e8 00 00 00 00       	call   53c <string_compare+0x5a>
 53c:	48 98                	cltq
 53e:	c9                   	leave
 53f:	c3                   	ret

0000000000000540 <ascii_value_of>:
 540:	f3 0f 1e fa          	endbr64
 544:	55                   	push   %rbp
 545:	48 89 e5             	mov    %rsp,%rbp
 548:	48 83 ec 10          	sub    $0x10,%rsp
 54c:	48 89 7d f8          	mov    %rdi,-0x8(%rbp)
 550:	48 89 75 f0          	mov    %rsi,-0x10(%rbp)
 554:	48 83 7d f8 00       	cmpq   $0x0,-0x8(%rbp)
 559:	74 1c                	je     577 <ascii_value_of+0x37>
 55b:	48 83 7d f0 00       	cmpq   $0x0,-0x10(%rbp)
 560:	78 15                	js     577 <ascii_value_of+0x37>
 562:	48 8b 45 f8          	mov    -0x8(%rbp),%rax
 566:	48 89 c7             	mov    %rax,%rdi
 569:	e8 00 00 00 00       	call   56e <ascii_value_of+0x2e>
 56e:	48 8b 55 f0          	mov    -0x10(%rbp),%rdx
 572:	48 39 c2             	cmp    %rax,%rdx
 575:	72 07                	jb     57e <ascii_value_of+0x3e>
 577:	b8 00 00 00 00       	mov    $0x0,%eax
 57c:	eb 11                	jmp    58f <ascii_value_of+0x4f>
 57e:	48 8b 55 f0          	mov    -0x10(%rbp),%rdx
 582:	48 8b 45 f8          	mov    -0x8(%rbp),%rax
 586:	48 01 d0             	add    %rdx,%rax
 589:	0f b6 00             	movzbl (%rax),%eax
 58c:	0f b6 c0             	movzbl %al,%eax
 58f:	c9                   	leave
 590:	c3                   	ret

0000000000000591 <string_substring>:
 591:	f3 0f 1e fa          	endbr64
 595:	55                   	push   %rbp
 596:	48 89 e5             	mov    %rsp,%rbp
 599:	48 83 ec 30          	sub    $0x30,%rsp
 59d:	48 89 7d e8          	mov    %rdi,-0x18(%rbp)
 5a1:	48 89 75 e0          	mov    %rsi,-0x20(%rbp)
 5a5:	48 89 55 d8          	mov    %rdx,-0x28(%rbp)
 5a9:	48 83 7d e8 00       	cmpq   $0x0,-0x18(%rbp)
 5ae:	75 0a                	jne    5ba <string_substring+0x29>
 5b0:	b8 00 00 00 00       	mov    $0x0,%eax
 5b5:	e9 a4 00 00 00       	jmp    65e <string_substring+0xcd>
 5ba:	48 8b 45 e8          	mov    -0x18(%rbp),%rax
 5be:	48 89 c7             	mov    %rax,%rdi
 5c1:	e8 00 00 00 00       	call   5c6 <string_substring+0x35>
 5c6:	48 89 45 f0          	mov    %rax,-0x10(%rbp)
 5ca:	48 83 7d e0 00       	cmpq   $0x0,-0x20(%rbp)
 5cf:	78 0a                	js     5db <string_substring+0x4a>
 5d1:	48 8b 45 e0          	mov    -0x20(%rbp),%rax
 5d5:	48 3b 45 f0          	cmp    -0x10(%rbp),%rax
 5d9:	72 11                	jb     5ec <string_substring+0x5b>
 5db:	48 8d 05 00 00 00 00 	lea    0x0(%rip),%rax        # 5e2 <string_substring+0x51>
 5e2:	48 89 c7             	mov    %rax,%rdi
 5e5:	e8 00 00 00 00       	call   5ea <string_substring+0x59>
 5ea:	eb 72                	jmp    65e <string_substring+0xcd>
 5ec:	48 83 7d d8 00       	cmpq   $0x0,-0x28(%rbp)
 5f1:	78 11                	js     604 <string_substring+0x73>
 5f3:	48 8b 55 e0          	mov    -0x20(%rbp),%rdx
 5f7:	48 8b 45 d8          	mov    -0x28(%rbp),%rax
 5fb:	48 01 d0             	add    %rdx,%rax
 5fe:	48 39 45 f0          	cmp    %rax,-0x10(%rbp)
 602:	73 0f                	jae    613 <string_substring+0x82>
 604:	48 8b 45 e0          	mov    -0x20(%rbp),%rax
 608:	48 8b 55 f0          	mov    -0x10(%rbp),%rdx
 60c:	48 29 c2             	sub    %rax,%rdx
 60f:	48 89 55 d8          	mov    %rdx,-0x28(%rbp)
 613:	48 8b 45 d8          	mov    -0x28(%rbp),%rax
 617:	48 83 c0 01          	add    $0x1,%rax
 61b:	48 89 c7             	mov    %rax,%rdi
 61e:	e8 00 00 00 00       	call   623 <string_substring+0x92>
 623:	48 89 45 f8          	mov    %rax,-0x8(%rbp)
 627:	48 83 7d f8 00       	cmpq   $0x0,-0x8(%rbp)
 62c:	74 2c                	je     65a <string_substring+0xc9>
 62e:	48 8b 55 d8          	mov    -0x28(%rbp),%rdx
 632:	48 8b 4d e0          	mov    -0x20(%rbp),%rcx
 636:	48 8b 45 e8          	mov    -0x18(%rbp),%rax
 63a:	48 01 c1             	add    %rax,%rcx
 63d:	48 8b 45 f8          	mov    -0x8(%rbp),%rax
 641:	48 89 ce             	mov    %rcx,%rsi
 644:	48 89 c7             	mov    %rax,%rdi
 647:	e8 00 00 00 00       	call   64c <string_substring+0xbb>
 64c:	48 8b 55 d8          	mov    -0x28(%rbp),%rdx
 650:	48 8b 45 f8          	mov    -0x8(%rbp),%rax
 654:	48 01 d0             	add    %rdx,%rax
 657:	c6 00 00             	movb   $0x0,(%rax)
 65a:	48 8b 45 f8          	mov    -0x8(%rbp),%rax
 65e:	c9                   	leave
 65f:	c3                   	ret

0000000000000660 <string_find>:
 660:	f3 0f 1e fa          	endbr64
 664:	55                   	push   %rbp
 665:	48 89 e5             	mov    %rsp,%rbp
 668:	48 83 ec 20          	sub    $0x20,%rsp
 66c:	48 89 7d e8          	mov    %rdi,-0x18(%rbp)
 670:	48 89 75 e0          	mov    %rsi,-0x20(%rbp)
 674:	48 83 7d e8 00       	cmpq   $0x0,-0x18(%rbp)
 679:	74 07                	je     682 <string_find+0x22>
 67b:	48 83 7d e0 00       	cmpq   $0x0,-0x20(%rbp)
 680:	75 09                	jne    68b <string_find+0x2b>
 682:	48 c7 c0 ff ff ff ff 	mov    $0xffffffffffffffff,%rax
 689:	eb 2f                	jmp    6ba <string_find+0x5a>
 68b:	48 8b 55 e0          	mov    -0x20(%rbp),%rdx
 68f:	48 8b 45 e8          	mov    -0x18(%rbp),%rax
 693:	48 89 d6             	mov    %rdx,%rsi
 696:	48 89 c7             	mov    %rax,%rdi
 699:	e8 00 00 00 00       	call   69e <string_find+0x3e>
 69e:	48 89 45 f8          	mov    %rax,-0x8(%rbp)
 6a2:	48 83 7d f8 00       	cmpq   $0x0,-0x8(%rbp)
 6a7:	75 09                	jne    6b2 <string_find+0x52>
 6a9:	48 c7 c0 ff ff ff ff 	mov    $0xffffffffffffffff,%rax
 6b0:	eb 08                	jmp    6ba <string_find+0x5a>
 6b2:	48 8b 45 f8          	mov    -0x8(%rbp),%rax
 6b6:	48 2b 45 e8          	sub    -0x18(%rbp),%rax
 6ba:	c9                   	leave
 6bb:	c3                   	ret

00000000000006bc <runtime_set_command_line_args>:
 6bc:	f3 0f 1e fa          	endbr64
 6c0:	55                   	push   %rbp
 6c1:	48 89 e5             	mov    %rsp,%rbp
 6c4:	89 7d fc             	mov    %edi,-0x4(%rbp)
 6c7:	48 89 75 f0          	mov    %rsi,-0x10(%rbp)
 6cb:	8b 45 fc             	mov    -0x4(%rbp),%eax
 6ce:	89 05 00 00 00 00    	mov    %eax,0x0(%rip)        # 6d4 <runtime_set_command_line_args+0x18>
 6d4:	48 8b 45 f0          	mov    -0x10(%rbp),%rax
 6d8:	48 89 05 00 00 00 00 	mov    %rax,0x0(%rip)        # 6df <runtime_set_command_line_args+0x23>
 6df:	90                   	nop
 6e0:	5d                   	pop    %rbp
 6e1:	c3                   	ret

00000000000006e2 <set_command_line_args>:
 6e2:	f3 0f 1e fa          	endbr64
 6e6:	55                   	push   %rbp
 6e7:	48 89 e5             	mov    %rsp,%rbp
 6ea:	48 83 ec 10          	sub    $0x10,%rsp
 6ee:	89 7d fc             	mov    %edi,-0x4(%rbp)
 6f1:	48 89 75 f0          	mov    %rsi,-0x10(%rbp)
 6f5:	48 8b 55 f0          	mov    -0x10(%rbp),%rdx
 6f9:	8b 45 fc             	mov    -0x4(%rbp),%eax
 6fc:	48 89 d6             	mov    %rdx,%rsi
 6ff:	89 c7                	mov    %eax,%edi
 701:	e8 00 00 00 00       	call   706 <set_command_line_args+0x24>
 706:	90                   	nop
 707:	c9                   	leave
 708:	c3                   	ret

0000000000000709 <get_command_line_arg_count>:
 709:	f3 0f 1e fa          	endbr64
 70d:	55                   	push   %rbp
 70e:	48 89 e5             	mov    %rsp,%rbp
 711:	8b 05 00 00 00 00    	mov    0x0(%rip),%eax        # 717 <get_command_line_arg_count+0xe>
 717:	48 98                	cltq
 719:	5d                   	pop    %rbp
 71a:	c3                   	ret

000000000000071b <get_command_line_arg>:
 71b:	f3 0f 1e fa          	endbr64
 71f:	55                   	push   %rbp
 720:	48 89 e5             	mov    %rsp,%rbp
 723:	48 83 ec 10          	sub    $0x10,%rsp
 727:	48 89 7d f8          	mov    %rdi,-0x8(%rbp)
 72b:	48 83 7d f8 00       	cmpq   $0x0,-0x8(%rbp)
 730:	78 0e                	js     740 <get_command_line_arg+0x25>
 732:	8b 05 00 00 00 00    	mov    0x0(%rip),%eax        # 738 <get_command_line_arg+0x1d>
 738:	48 98                	cltq
 73a:	48 39 45 f8          	cmp    %rax,-0x8(%rbp)
 73e:	7c 11                	jl     751 <get_command_line_arg+0x36>
 740:	48 8d 05 00 00 00 00 	lea    0x0(%rip),%rax        # 747 <get_command_line_arg+0x2c>
 747:	48 89 c7             	mov    %rax,%rdi
 74a:	e8 00 00 00 00       	call   74f <get_command_line_arg+0x34>
 74f:	eb 1d                	jmp    76e <get_command_line_arg+0x53>
 751:	48 8b 05 00 00 00 00 	mov    0x0(%rip),%rax        # 758 <get_command_line_arg+0x3d>
 758:	48 8b 55 f8          	mov    -0x8(%rbp),%rdx
 75c:	48 c1 e2 03          	shl    $0x3,%rdx
 760:	48 01 d0             	add    %rdx,%rax
 763:	48 8b 00             	mov    (%rax),%rax
 766:	48 89 c7             	mov    %rax,%rdi
 769:	e8 00 00 00 00       	call   76e <get_command_line_arg+0x53>
 76e:	c9                   	leave
 76f:	c3                   	ret

0000000000000770 <runtime_read_file>:
 770:	f3 0f 1e fa          	endbr64
 774:	55                   	push   %rbp
 775:	48 89 e5             	mov    %rsp,%rbp
 778:	48 83 ec 30          	sub    $0x30,%rsp
 77c:	48 89 7d d8          	mov    %rdi,-0x28(%rbp)
 780:	48 8b 45 d8          	mov    -0x28(%rbp),%rax
 784:	48 8d 15 00 00 00 00 	lea    0x0(%rip),%rdx        # 78b <runtime_read_file+0x1b>
 78b:	48 89 d6             	mov    %rdx,%rsi
 78e:	48 89 c7             	mov    %rax,%rdi
 791:	e8 00 00 00 00       	call   796 <runtime_read_file+0x26>
 796:	48 89 45 e8          	mov    %rax,-0x18(%rbp)
 79a:	48 83 7d e8 00       	cmpq   $0x0,-0x18(%rbp)
 79f:	75 0a                	jne    7ab <runtime_read_file+0x3b>
 7a1:	b8 00 00 00 00       	mov    $0x0,%eax
 7a6:	e9 a1 00 00 00       	jmp    84c <runtime_read_file+0xdc>
 7ab:	48 8b 45 e8          	mov    -0x18(%rbp),%rax
 7af:	ba 02 00 00 00       	mov    $0x2,%edx
 7b4:	be 00 00 00 00       	mov    $0x0,%esi
 7b9:	48 89 c7             	mov    %rax,%rdi
 7bc:	e8 00 00 00 00       	call   7c1 <runtime_read_file+0x51>
 7c1:	48 8b 45 e8          	mov    -0x18(%rbp),%rax
 7c5:	48 89 c7             	mov    %rax,%rdi
 7c8:	e8 00 00 00 00       	call   7cd <runtime_read_file+0x5d>
 7cd:	48 89 45 f0          	mov    %rax,-0x10(%rbp)
 7d1:	48 8b 45 e8          	mov    -0x18(%rbp),%rax
 7d5:	ba 00 00 00 00       	mov    $0x0,%edx
 7da:	be 00 00 00 00       	mov    $0x0,%esi
 7df:	48 89 c7             	mov    %rax,%rdi
 7e2:	e8 00 00 00 00       	call   7e7 <runtime_read_file+0x77>
 7e7:	48 8b 45 f0          	mov    -0x10(%rbp),%rax
 7eb:	48 83 c0 01          	add    $0x1,%rax
 7ef:	48 89 c7             	mov    %rax,%rdi
 7f2:	e8 00 00 00 00       	call   7f7 <runtime_read_file+0x87>
 7f7:	48 89 45 f8          	mov    %rax,-0x8(%rbp)
 7fb:	48 83 7d f8 00       	cmpq   $0x0,-0x8(%rbp)
 800:	75 13                	jne    815 <runtime_read_file+0xa5>
 802:	48 8b 45 e8          	mov    -0x18(%rbp),%rax
 806:	48 89 c7             	mov    %rax,%rdi
 809:	e8 00 00 00 00       	call   80e <runtime_read_file+0x9e>
 80e:	b8 00 00 00 00       	mov    $0x0,%eax
 813:	eb 37                	jmp    84c <runtime_read_file+0xdc>
 815:	48 8b 55 f0          	mov    -0x10(%rbp),%rdx
 819:	48 8b 4d e8          	mov    -0x18(%rbp),%rcx
 81d:	48 8b 45 f8          	mov    -0x8(%rbp),%rax
 821:	be 01 00 00 00       	mov    $0x1,%esi
 826:	48 89 c7             	mov    %rax,%rdi
 829:	e8 00 00 00 00       	call   82e <runtime_read_file+0xbe>
 82e:	48 8b 55 f0          	mov    -0x10(%rbp),%rdx
 832:	48 8b 45 f8          	mov    -0x8(%rbp),%rax
 836:	48 01 d0             	add    %rdx,%rax
 839:	c6 00 00             	movb   $0x0,(%rax)
 83c:	48 8b 45 e8          	mov    -0x18(%rbp),%rax
 840:	48 89 c7             	mov    %rax,%rdi
 843:	e8 00 00 00 00       	call   848 <runtime_read_file+0xd8>
 848:	48 8b 45 f8          	mov    -0x8(%rbp),%rax
 84c:	c9                   	leave
 84d:	c3                   	ret

000000000000084e <runtime_sin>:
 84e:	f3 0f 1e fa          	endbr64
 852:	55                   	push   %rbp
 853:	48 89 e5             	mov    %rsp,%rbp
 856:	48 83 ec 20          	sub    $0x20,%rsp
 85a:	f2 0f 11 45 e8       	movsd  %xmm0,-0x18(%rbp)
 85f:	f2 0f 10 4d e8       	movsd  -0x18(%rbp),%xmm1
 864:	f2 0f 10 05 00 00 00 	movsd  0x0(%rip),%xmm0        # 86c <runtime_sin+0x1e>
 86b:	00 
 86c:	f2 0f 59 c1          	mulsd  %xmm1,%xmm0
 870:	f2 0f 10 0d 00 00 00 	movsd  0x0(%rip),%xmm1        # 878 <runtime_sin+0x2a>
 877:	00 
 878:	f2 0f 5e c1          	divsd  %xmm1,%xmm0
 87c:	f2 0f 11 45 f8       	movsd  %xmm0,-0x8(%rbp)
 881:	48 8b 45 f8          	mov    -0x8(%rbp),%rax
 885:	66 48 0f 6e c0       	movq   %rax,%xmm0
 88a:	e8 00 00 00 00       	call   88f <runtime_sin+0x41>
 88f:	c9                   	leave
 890:	c3                   	ret

0000000000000891 <runtime_cos>:
 891:	f3 0f 1e fa          	endbr64
 895:	55                   	push   %rbp
 896:	48 89 e5             	mov    %rsp,%rbp
 899:	48 83 ec 20          	sub    $0x20,%rsp
 89d:	f2 0f 11 45 e8       	movsd  %xmm0,-0x18(%rbp)
 8a2:	f2 0f 10 4d e8       	movsd  -0x18(%rbp),%xmm1
 8a7:	f2 0f 10 05 00 00 00 	movsd  0x0(%rip),%xmm0        # 8af <runtime_cos+0x1e>
 8ae:	00 
 8af:	f2 0f 59 c1          	mulsd  %xmm1,%xmm0
 8b3:	f2 0f 10 0d 00 00 00 	movsd  0x0(%rip),%xmm1        # 8bb <runtime_cos+0x2a>
 8ba:	00 
 8bb:	f2 0f 5e c1          	divsd  %xmm1,%xmm0
 8bf:	f2 0f 11 45 f8       	movsd  %xmm0,-0x8(%rbp)
 8c4:	48 8b 45 f8          	mov    -0x8(%rbp),%rax
 8c8:	66 48 0f 6e c0       	movq   %rax,%xmm0
 8cd:	e8 00 00 00 00       	call   8d2 <runtime_cos+0x41>
 8d2:	c9                   	leave
 8d3:	c3                   	ret

00000000000008d4 <call_function_pointer_2args>:
 8d4:	f3 0f 1e fa          	endbr64
 8d8:	55                   	push   %rbp
 8d9:	48 89 e5             	mov    %rsp,%rbp
 8dc:	48 83 ec 20          	sub    $0x20,%rsp
 8e0:	48 89 7d f8          	mov    %rdi,-0x8(%rbp)
 8e4:	48 89 75 f0          	mov    %rsi,-0x10(%rbp)
 8e8:	48 89 55 e8          	mov    %rdx,-0x18(%rbp)
 8ec:	48 8b 4d f8          	mov    -0x8(%rbp),%rcx
 8f0:	48 8b 55 e8          	mov    -0x18(%rbp),%rdx
 8f4:	48 8b 45 f0          	mov    -0x10(%rbp),%rax
 8f8:	48 89 d6             	mov    %rdx,%rsi
 8fb:	48 89 c7             	mov    %rax,%rdi
 8fe:	ff d1                	call   *%rcx
 900:	c9                   	leave
 901:	c3                   	ret

0000000000000902 <print>:
 902:	f3 0f 1e fa          	endbr64
 906:	55                   	push   %rbp
 907:	48 89 e5             	mov    %rsp,%rbp
 90a:	48 83 ec 10          	sub    $0x10,%rsp
 90e:	48 89 7d f8          	mov    %rdi,-0x8(%rbp)
 912:	48 8b 45 f8          	mov    -0x8(%rbp),%rax
 916:	48 89 c7             	mov    %rax,%rdi
 919:	e8 00 00 00 00       	call   91e <print+0x1c>
 91e:	90                   	nop
 91f:	c9                   	leave
 920:	c3                   	ret

0000000000000921 <write_file>:
 921:	f3 0f 1e fa          	endbr64
 925:	55                   	push   %rbp
 926:	48 89 e5             	mov    %rsp,%rbp
 929:	48 83 ec 30          	sub    $0x30,%rsp
 92d:	48 89 7d d8          	mov    %rdi,-0x28(%rbp)
 931:	48 89 75 d0          	mov    %rsi,-0x30(%rbp)
 935:	48 8b 45 d8          	mov    -0x28(%rbp),%rax
 939:	48 8d 15 00 00 00 00 	lea    0x0(%rip),%rdx        # 940 <write_file+0x1f>
 940:	48 89 d6             	mov    %rdx,%rsi
 943:	48 89 c7             	mov    %rax,%rdi
 946:	e8 00 00 00 00       	call   94b <write_file+0x2a>
 94b:	48 89 45 e8          	mov    %rax,-0x18(%rbp)
 94f:	48 83 7d e8 00       	cmpq   $0x0,-0x18(%rbp)
 954:	75 07                	jne    95d <write_file+0x3c>
 956:	b8 00 00 00 00       	mov    $0x0,%eax
 95b:	eb 47                	jmp    9a4 <write_file+0x83>
 95d:	48 8b 45 d0          	mov    -0x30(%rbp),%rax
 961:	48 89 c7             	mov    %rax,%rdi
 964:	e8 00 00 00 00       	call   969 <write_file+0x48>
 969:	48 89 45 f0          	mov    %rax,-0x10(%rbp)
 96d:	48 8b 55 f0          	mov    -0x10(%rbp),%rdx
 971:	48 8b 4d e8          	mov    -0x18(%rbp),%rcx
 975:	48 8b 45 d0          	mov    -0x30(%rbp),%rax
 979:	be 01 00 00 00       	mov    $0x1,%esi
 97e:	48 89 c7             	mov    %rax,%rdi
 981:	e8 00 00 00 00       	call   986 <write_file+0x65>
 986:	48 89 45 f8          	mov    %rax,-0x8(%rbp)
 98a:	48 8b 45 e8          	mov    -0x18(%rbp),%rax
 98e:	48 89 c7             	mov    %rax,%rdi
 991:	e8 00 00 00 00       	call   996 <write_file+0x75>
 996:	48 8b 45 f8          	mov    -0x8(%rbp),%rax
 99a:	48 3b 45 f0          	cmp    -0x10(%rbp),%rax
 99e:	0f 94 c0             	sete   %al
 9a1:	0f b6 c0             	movzbl %al,%eax
 9a4:	c9                   	leave
 9a5:	c3                   	ret
